; Function Attrs: mustprogress uwtable
define range(i32 -1, -2147483648) i32 @zmq_msg_send(ptr noundef %0, ptr noundef %1, i32 noundef %2) local_unnamed_addr #1 {
  %.not.i = icmp eq ptr %1, null
  br i1 %.not.i, label %_ZL16as_socket_base_tPv.exit.thread, label %4

4:                                                ; preds = %3
  %5 = tail call noundef zeroext i1 @_ZNK3zmq13socket_base_t9check_tagEv(ptr noundef nonnull align 8 dereferenceable(1825) %1)
  br i1 %5, label %_ZL16as_socket_base_tPv.exit, label %_ZL16as_socket_base_tPv.exit.thread

_ZL16as_socket_base_tPv.exit.thread:              ; preds = %3, %4
  %6 = tail call ptr @__errno_location() #20
  store i32 88, ptr %6, align 4, !tbaa !3
  br label %11

_ZL16as_socket_base_tPv.exit:                     ; preds = %4
  %7 = tail call noundef i64 @_ZNK3zmq5msg_t4sizeEv(ptr noundef nonnull align 8 dereferenceable(64) %0)
  %8 = tail call noundef i32 @_ZN3zmq13socket_base_t4sendEPNS_5msg_tEi(ptr noundef nonnull align 8 dereferenceable(1825) %1, ptr noundef nonnull %0, i32 noundef %2)
  %9 = tail call i64 @llvm.umin.i64(i64 %7, i64 2147483647)
  %10 = trunc nuw nsw i64 %9 to i32
  %.inv.i = icmp sgt i32 %8, -1
  %.0.i6 = select i1 %.inv.i, i32 %10, i32 -1, !prof !9
  br label %11

11:                                               ; preds = %_ZL16as_socket_base_tPv.exit.thread, %_ZL16as_socket_base_tPv.exit
  %.0 = phi i32 [ %.0.i6, %_ZL16as_socket_base_tPv.exit ], [ -1, %_ZL16as_socket_base_tPv.exit.thread ]
  ret i32 %.0
}